target datalayout = "e-m:e-p270:32:32-p271:32:32-p272:64:64-i64:64-i128:128-f80:128-n8:16:32:64-S128"
target triple = "x86_64-unknown-linux-gnu"

%struct.pcpu_hot = type { %union.anon.31 }
%union.anon.31 = type { %struct.anon.32, [16 x i8] }
%struct.anon.32 = type { ptr, i32, i32, i64, i64, ptr, i16, i8 }

@pcpu_hot = external dso_local global %struct.pcpu_hot, section ".data..percpu..shared_aligned", align 64

; Function Attrs: fn_ret_thunk_extern nounwind null_pointer_is_valid
define dso_local noundef i32 @generic_write_checks_count(ptr nocapture noundef %0, ptr nocapture noundef %1) #0 align 16 {
  %3 = load ptr, ptr %0, align 8
  %4 = getelementptr inbounds i8, ptr %3, i64 216
  %5 = load ptr, ptr %4, align 8
  %6 = load ptr, ptr %5, align 8
  %7 = getelementptr inbounds i8, ptr %6, i64 12
  %8 = load i32, ptr %7, align 4
  %9 = and i32 %8, 256
  %10 = icmp eq i32 %9, 0
  br i1 %10, label %11, label %65

11:                                               ; preds = %2
  %12 = load i64, ptr %1, align 8
  %13 = icmp eq i64 %12, 0
  br i1 %13, label %65, label %14

14:                                               ; preds = %11
  %15 = getelementptr inbounds i8, ptr %0, i64 32
  %16 = load i32, ptr %15, align 8
  %17 = and i32 %16, 16
  %18 = icmp eq i32 %17, 0
  br i1 %18, label %23, label %19

19:                                               ; preds = %14
  %20 = getelementptr inbounds i8, ptr %6, i64 80
  %21 = load i64, ptr %20, align 8
  %22 = getelementptr inbounds i8, ptr %0, i64 8
  store i64 %21, ptr %22, align 8
  br label %23

23:                                               ; preds = %19, %14
  %24 = and i32 %16, 131080
  %25 = icmp eq i32 %24, 8
  br i1 %25, label %26, label %30

26:                                               ; preds = %23
  %27 = getelementptr inbounds i8, ptr %3, i64 20
  %28 = load i32, ptr %27, align 4
  %29 = icmp sgt i32 %28, -1
  br i1 %29, label %65, label %30

30:                                               ; preds = %26, %23
  %31 = getelementptr inbounds i8, ptr %0, i64 8
  %32 = load i64, ptr %31, align 8
  %33 = load ptr, ptr %4, align 8
  %34 = load ptr, ptr %33, align 8
  %35 = getelementptr inbounds i8, ptr %34, i64 40
  %36 = load ptr, ptr %35, align 8
  %37 = getelementptr inbounds i8, ptr %36, i64 32
  %38 = load i64, ptr %37, align 32
  %39 = tail call i64 asm "movq %gs:${1:P}, $0", "=r,p,~{dirflag},~{fpsr},~{flags}"(ptr nonnull @pcpu_hot) #13, !srcloc !13
  %40 = inttoptr i64 %39 to ptr
  %41 = getelementptr inbounds i8, ptr %40, i64 1880
  %42 = load ptr, ptr %41, align 8
  %43 = getelementptr i8, ptr %42, i64 688
  %44 = load volatile i64, ptr %43, align 8
  %45 = icmp eq i64 %44, -1
  br i1 %45, label %54, label %46

46:                                               ; preds = %30
  %47 = icmp sgt i64 %44, %32
  br i1 %47, label %50, label %48

48:                                               ; preds = %46
  %49 = tail call i32 @send_sig(i32 noundef 25, ptr noundef %40, i32 noundef 0) #12
  br label %65

50:                                               ; preds = %46
  %51 = load i64, ptr %1, align 8
  %52 = sub i64 %44, %32
  %53 = tail call i64 @llvm.smin.i64(i64 %51, i64 %52)
  store i64 %53, ptr %1, align 8
  br label %54

54:                                               ; preds = %50, %30
  %55 = getelementptr inbounds i8, ptr %3, i64 72
  %56 = load i32, ptr %55, align 8
  %57 = and i32 %56, 32768
  %58 = icmp eq i32 %57, 0
  %59 = select i1 %58, i64 2147483647, i64 %38
  %60 = icmp sgt i64 %59, %32
  br i1 %60, label %61, label %65, !prof !12

61:                                               ; preds = %54
  %62 = load i64, ptr %1, align 8
  %63 = sub i64 %59, %32
  %64 = tail call i64 @llvm.smin.i64(i64 %62, i64 %63)
  store i64 %64, ptr %1, align 8
  br label %65

65:                                               ; preds = %61, %54, %48, %26, %11, %2
  %66 = phi i32 [ -26, %2 ], [ 0, %11 ], [ -22, %26 ], [ -27, %48 ], [ 0, %61 ], [ -27, %54 ]
  ret i32 %66
}

; Function Attrs: fn_ret_thunk_extern nounwind null_pointer_is_valid
define dso_local i64 @generic_write_checks(ptr nocapture noundef %0, ptr nocapture noundef %1) #0 align 16 {
  %3 = alloca i64, align 8
  call void @llvm.lifetime.start.p0(i64 8, ptr nonnull %3) #12
  store i64 0, ptr %3, align 8, !annotation !7
  %4 = getelementptr inbounds i8, ptr %1, i64 24
  %5 = load i64, ptr %4, align 8
  store i64 %5, ptr %3, align 8
  %6 = call i32 @generic_write_checks_count(ptr noundef %0, ptr noundef nonnull %3), !range !42
  %7 = icmp eq i32 %6, 0
  br i1 %7, label %10, label %8

8:                                                ; preds = %2
  %9 = sext i32 %6 to i64
  br label %17

10:                                               ; preds = %2
  %11 = load i64, ptr %3, align 8
  %12 = load i64, ptr %4, align 8
  %13 = icmp ugt i64 %12, %11
  br i1 %13, label %14, label %15

14:                                               ; preds = %10
  store i64 %11, ptr %4, align 8
  br label %15

15:                                               ; preds = %14, %10
  %16 = load i64, ptr %4, align 8
  br label %17

17:                                               ; preds = %15, %8
  %18 = phi i64 [ %9, %8 ], [ %16, %15 ]
  call void @llvm.lifetime.end.p0(i64 8, ptr nonnull %3) #12
  ret i64 %18
}