; Function Attrs: fn_ret_thunk_extern nounwind null_pointer_is_valid
define dso_local i64 @generic_write_checks(ptr nocapture noundef %0, ptr nocapture noundef %1) #0 align 16 {
  %3 = getelementptr inbounds i8, ptr %1, i64 24
  %4 = load i64, ptr %3, align 8
  %5 = load ptr, ptr %0, align 8
  %6 = getelementptr inbounds i8, ptr %5, i64 216
  %7 = load ptr, ptr %6, align 8
  %8 = load ptr, ptr %7, align 8
  %9 = getelementptr inbounds i8, ptr %8, i64 12
  %10 = load i32, ptr %9, align 4
  %11 = and i32 %10, 256
  %12 = icmp eq i32 %11, 0
  br i1 %12, label %13, label %generic_write_checks_count.exit.thread

13:                                               ; preds = %2
  %14 = icmp eq i64 %4, 0
  br i1 %14, label %generic_write_checks_count.exit.thread, label %15

15:                                               ; preds = %13
  %16 = getelementptr inbounds i8, ptr %0, i64 32
  %17 = load i32, ptr %16, align 8
  %18 = and i32 %17, 16
  %19 = icmp eq i32 %18, 0
  br i1 %19, label %24, label %20

20:                                               ; preds = %15
  %21 = getelementptr inbounds i8, ptr %8, i64 80
  %22 = load i64, ptr %21, align 8
  %23 = getelementptr inbounds i8, ptr %0, i64 8
  store i64 %22, ptr %23, align 8
  br label %24

24:                                               ; preds = %20, %15
  %25 = and i32 %17, 131080
  %26 = icmp eq i32 %25, 8
  br i1 %26, label %27, label %31

27:                                               ; preds = %24
  %28 = getelementptr inbounds i8, ptr %5, i64 20
  %29 = load i32, ptr %28, align 4
  %30 = icmp sgt i32 %29, -1
  br i1 %30, label %generic_write_checks_count.exit.thread, label %31

31:                                               ; preds = %27, %24
  %32 = getelementptr inbounds i8, ptr %0, i64 8
  %33 = load i64, ptr %32, align 8
  %34 = load ptr, ptr %6, align 8
  %35 = load ptr, ptr %34, align 8
  %36 = getelementptr inbounds i8, ptr %35, i64 40
  %37 = load ptr, ptr %36, align 8
  %38 = getelementptr inbounds i8, ptr %37, i64 32
  %39 = load i64, ptr %38, align 32
  %40 = tail call i64 asm "movq %gs:${1:P}, $0", "=r,p,~{dirflag},~{fpsr},~{flags}"(ptr nonnull @pcpu_hot) #13, !srcloc !13
  %41 = inttoptr i64 %40 to ptr
  %42 = getelementptr inbounds i8, ptr %41, i64 1880
  %43 = load ptr, ptr %42, align 8
  %44 = getelementptr i8, ptr %43, i64 688
  %45 = load volatile i64, ptr %44, align 8
  %46 = icmp eq i64 %45, -1
  br i1 %46, label %54, label %47

47:                                               ; preds = %31
  %48 = icmp sgt i64 %45, %33
  br i1 %48, label %51, label %49

49:                                               ; preds = %47
  %50 = tail call i32 @send_sig(i32 noundef 25, ptr noundef %41, i32 noundef 0) #12
  br label %generic_write_checks_count.exit.thread

51:                                               ; preds = %47
  %52 = sub i64 %45, %33
  %53 = tail call i64 @llvm.smin.i64(i64 %4, i64 %52)
  br label %54

54:                                               ; preds = %51, %31
  %.0 = phi i64 [ %4, %31 ], [ %53, %51 ]
  %55 = getelementptr inbounds i8, ptr %5, i64 72
  %56 = load i32, ptr %55, align 8
  %57 = and i32 %56, 32768
  %58 = icmp eq i32 %57, 0
  %59 = select i1 %58, i64 2147483647, i64 %39
  %60 = icmp sgt i64 %59, %33
  br i1 %60, label %generic_write_checks_count.exit, label %generic_write_checks_count.exit.thread, !prof !12

generic_write_checks_count.exit:                  ; preds = %54
  %61 = sub i64 %59, %33
  %62 = tail call i64 @llvm.smin.i64(i64 %.0, i64 %61)
  %.pre = load i64, ptr %3, align 8
  %63 = icmp ugt i64 %.pre, %62
  br i1 %63, label %64, label %generic_write_checks_count.exit.thread

64:                                               ; preds = %generic_write_checks_count.exit
  store i64 %62, ptr %3, align 8
  br label %generic_write_checks_count.exit.thread

generic_write_checks_count.exit.thread:           ; preds = %13, %generic_write_checks_count.exit, %64, %54, %49, %27, %2
  %65 = phi i64 [ -27, %54 ], [ -27, %49 ], [ -22, %27 ], [ -26, %2 ], [ %62, %64 ], [ %.pre, %generic_write_checks_count.exit ], [ 0, %13 ]
  ret i64 %65
}